target datalayout = "e-m:e-p270:32:32-p271:32:32-p272:64:64-i64:64-i128:128-f80:128-n8:16:32:64-S128"
target triple = "x86_64-unknown-linux-gnu"

%class.symbol = type { ptr }
%class.ptr_vector.34 = type { %class.vector.35 }
%class.vector.35 = type { ptr }
%class.ptr_vector.57 = type { %class.vector.58 }
%class.vector.58 = type { ptr }
%class.ast_context_params = type { %class.context_params, ptr }
%class.context_params = type { i32, i32, %"class.std::__cxx11::basic_string", %"class.std::__cxx11::basic_string", i8, i8, i8, i8, i8, i8, i8, i8, i8, i8, i8, %"class.std::__cxx11::basic_string" }
%"class.std::__cxx11::basic_string" = type { %"struct.std::__cxx11::basic_string<char>::_Alloc_hider", i64, %union.anon }
%"struct.std::__cxx11::basic_string<char>::_Alloc_hider" = type { ptr }
%union.anon = type { i64, [8 x i8] }
%class.svector.4 = type { %class.vector.5 }
%class.vector.5 = type { ptr }
%class.obj_map.21 = type { %class.core_hashtable.22 }
%class.core_hashtable.22 = type <{ ptr, i32, i32, i32, [4 x i8] }>
%class.cmd_context = type { %class.progress_callback, %class.tactic_manager, %class.ast_printer_context, %class.ast_context_params, i8, %class.symbol, i8, i8, i8, i32, i8, i8, i8, i32, i8, i8, i8, i8, %class.scoped_ptr.83, %class.ref_vector_core.84, ptr, i8, i8, ptr, ptr, %class.check_logic, %class.stream_ref, %class.stream_ref, %class.map.87, %class.map.91, %class.scoped_ptr_vector, %class.map.97, %class.map.101, %class.map.105, %class.obj_map.109, %class.map.114, %class.map.118, %class.svector.122, %class.svector.4, %class.svector.4, %class.ptr_vector.124, %class.ptr_vector.124, %class.ptr_vector.57, %"class.std::vector", %class.ptr_vector.57, %class.svector.129, %class.scoped_ptr.131, %class.ref, %class.ref.132, %class.ref.133, %class.stopwatch, %class.scoped_ptr.134, %class.scoped_ptr.135 }
%class.progress_callback = type { ptr }
%class.tactic_manager = type { %class.map.65, %class.map.69, %class.map.73, %class.ptr_vector.77, %class.ptr_vector.79, %class.ptr_vector.81 }
%class.map.65 = type { %class.table2map.66 }
%class.table2map.66 = type { %class.core_hashtable.67 }
%class.core_hashtable.67 = type <{ ptr, i32, i32, i32, [4 x i8] }>
%class.map.69 = type { %class.table2map.70 }
%class.table2map.70 = type { %class.core_hashtable.71 }
%class.core_hashtable.71 = type <{ ptr, i32, i32, i32, [4 x i8] }>
%class.map.73 = type { %class.table2map.74 }
%class.table2map.74 = type { %class.core_hashtable.75 }
%class.core_hashtable.75 = type <{ ptr, i32, i32, i32, [4 x i8] }>
%class.ptr_vector.77 = type { %class.vector.78 }
%class.vector.78 = type { ptr }
%class.ptr_vector.79 = type { %class.vector.80 }
%class.vector.80 = type { ptr }
%class.ptr_vector.81 = type { %class.vector.82 }
%class.vector.82 = type { ptr }
%class.ast_printer_context = type { %class.ast_printer }
%class.ast_printer = type { ptr }
%class.scoped_ptr.83 = type { ptr }
%class.ref_vector_core.84 = type { %class.ptr_vector.85 }
%class.ptr_vector.85 = type { %class.vector.86 }
%class.vector.86 = type { ptr }
%class.check_logic = type { ptr }
%class.stream_ref = type <{ %"class.std::__cxx11::basic_string", ptr, %"class.std::__cxx11::basic_string", ptr, i8, [7 x i8] }>
%class.map.87 = type { %class.table2map.88 }
%class.table2map.88 = type { %class.core_hashtable.89 }
%class.core_hashtable.89 = type <{ ptr, i32, i32, i32, [4 x i8] }>
%class.map.91 = type { %class.table2map.92 }
%class.table2map.92 = type { %class.core_hashtable.93 }
%class.core_hashtable.93 = type <{ ptr, i32, i32, i32, [4 x i8] }>
%class.scoped_ptr_vector = type { %class.ptr_vector.95 }
%class.ptr_vector.95 = type { %class.vector.96 }
%class.vector.96 = type { ptr }
%class.map.97 = type { %class.table2map.98 }
%class.table2map.98 = type { %class.core_hashtable.99 }
%class.core_hashtable.99 = type <{ ptr, i32, i32, i32, [4 x i8] }>
%class.map.101 = type { %class.table2map.102 }
%class.table2map.102 = type { %class.core_hashtable.103 }
%class.core_hashtable.103 = type <{ ptr, i32, i32, i32, [4 x i8] }>
%class.map.105 = type { %class.table2map.106 }
%class.table2map.106 = type { %class.core_hashtable.107 }
%class.core_hashtable.107 = type <{ ptr, i32, i32, i32, [4 x i8] }>
%class.obj_map.109 = type { %class.core_hashtable.110 }
%class.core_hashtable.110 = type <{ ptr, i32, i32, i32, [4 x i8] }>
%class.map.114 = type { %class.table2map.115 }
%class.table2map.115 = type { %class.core_hashtable.116 }
%class.core_hashtable.116 = type <{ ptr, i32, i32, i32, [4 x i8] }>
%class.map.118 = type { %class.table2map.119 }
%class.table2map.119 = type { %class.core_hashtable.120 }
%class.core_hashtable.120 = type <{ ptr, i32, i32, i32, [4 x i8] }>
%class.svector.122 = type { %class.vector.123 }
%class.vector.123 = type { ptr }
%class.ptr_vector.124 = type { %class.vector.125 }
%class.vector.125 = type { ptr }
%"class.std::vector" = type { %"struct.std::_Vector_base" }
%"struct.std::_Vector_base" = type { %"struct.std::_Vector_base<std::__cxx11::basic_string<char>, std::allocator<std::__cxx11::basic_string<char>>>::_Vector_impl" }
%"struct.std::_Vector_base<std::__cxx11::basic_string<char>, std::allocator<std::__cxx11::basic_string<char>>>::_Vector_impl" = type { %"struct.std::_Vector_base<std::__cxx11::basic_string<char>, std::allocator<std::__cxx11::basic_string<char>>>::_Vector_impl_data" }
%"struct.std::_Vector_base<std::__cxx11::basic_string<char>, std::allocator<std::__cxx11::basic_string<char>>>::_Vector_impl_data" = type { ptr, ptr, ptr }
%class.svector.129 = type { %class.vector.130 }
%class.vector.130 = type { ptr }
%class.scoped_ptr.131 = type { ptr }
%class.ref = type { ptr }
%class.ref.132 = type { ptr }
%class.ref.133 = type { ptr }
%class.stopwatch = type <{ %"class.std::chrono::time_point", %"class.std::chrono::duration", i8, [7 x i8] }>
%"class.std::chrono::time_point" = type { %"class.std::chrono::duration" }
%"class.std::chrono::duration" = type { i64 }
%class.scoped_ptr.134 = type { ptr }
%class.scoped_ptr.135 = type { ptr }
%"class.datatype::util" = type { ptr, i32, ptr, %class.obj_map.198, %class.obj_map.203, %class.obj_map.208, %class.obj_map.21, %class.obj_map.21, %class.obj_map.21, %class.obj_map.213, %class.obj_map.213, %class.obj_map.213, %class.ref_vector.218, %class.ref_vector_core.223, %class.ptr_vector.227, i32, %class.ptr_vector.34 }
%class.obj_map.198 = type { %class.core_hashtable.199 }
%class.core_hashtable.199 = type <{ ptr, i32, i32, i32, [4 x i8] }>
%class.obj_map.203 = type { %class.core_hashtable.204 }
%class.core_hashtable.204 = type <{ ptr, i32, i32, i32, [4 x i8] }>
%class.obj_map.208 = type { %class.core_hashtable.209 }
%class.core_hashtable.209 = type <{ ptr, i32, i32, i32, [4 x i8] }>
%class.obj_map.213 = type { %class.core_hashtable.214 }
%class.core_hashtable.214 = type <{ ptr, i32, i32, i32, [4 x i8] }>
%class.ref_vector.218 = type { %class.ref_vector_core.219 }
%class.ref_vector_core.219 = type { %class.ref_manager_wrapper.220, %class.ptr_vector.221 }
%class.ref_manager_wrapper.220 = type { ptr }
%class.ptr_vector.221 = type { %class.vector.222 }
%class.vector.222 = type { ptr }
%class.ref_vector_core.223 = type { %class.ptr_vector.225 }
%class.ptr_vector.225 = type { %class.vector.226 }
%class.vector.226 = type { ptr }
%class.ptr_vector.227 = type { %class.vector.228 }
%class.vector.228 = type { ptr }
%"class.cmd_context::dt_eh" = type { %class.new_datatype_eh, ptr, %"class.datatype::util" }
%class.new_datatype_eh = type { ptr }

@_ZTVN11cmd_context5dt_ehE = hidden unnamed_addr constant { [5 x ptr] } { [5 x ptr] [ptr null, ptr @_ZTIN11cmd_context5dt_ehE, ptr @_ZN11cmd_context5dt_ehD1Ev, ptr @_ZN11cmd_context5dt_ehD0Ev, ptr @_ZN11cmd_context5dt_ehclEP4sortP5pdecl] }, align 8
@_ZTV15new_datatype_eh = linkonce_odr hidden unnamed_addr constant { [5 x ptr] } { [5 x ptr] [ptr null, ptr @_ZTI15new_datatype_eh, ptr @_ZN15new_datatype_ehD2Ev, ptr @_ZN15new_datatype_ehD0Ev, ptr @__cxa_pure_virtual] }, comdat, align 8

; Function Attrs: mustprogress nounwind uwtable
define linkonce_odr hidden void @_ZN15new_datatype_ehD2Ev(ptr noundef nonnull align 8 dereferenceable(8) %this) unnamed_addr #5 comdat align 2 {
entry:
  %this.addr = alloca ptr, align 8
  store ptr %this, ptr %this.addr, align 8
  ret void
}

; Function Attrs: mustprogress uwtable
define linkonce_odr hidden noundef nonnull align 8 dereferenceable(976) ptr @_ZNK11cmd_context1mEv(ptr noundef nonnull align 8 dereferenceable(872) %this) #4 comdat align 2 {
entry:
  %this.addr = alloca ptr, align 8
  store ptr %this, ptr %this.addr, align 8
  %this1 = load ptr, ptr %this.addr, align 8
  call void @_ZN11cmd_context12init_managerEv(ptr noundef nonnull align 8 dereferenceable(872) %this1)
  %m_manager = getelementptr inbounds %class.cmd_context, ptr %this1, i32 0, i32 20
  %0 = load ptr, ptr %m_manager, align 8
  ret ptr %0
}

; Function Attrs: mustprogress nounwind uwtable
define linkonce_odr hidden void @_ZN15new_datatype_ehC2Ev(ptr noundef nonnull align 8 dereferenceable(8) %this) unnamed_addr #5 comdat align 2 {
entry:
  %this.addr = alloca ptr, align 8
  store ptr %this, ptr %this.addr, align 8
  %this1 = load ptr, ptr %this.addr, align 8
  store ptr getelementptr inbounds ({ [5 x ptr] }, ptr @_ZTV15new_datatype_eh, i32 0, i32 0, i32 2), ptr %this1, align 8
  ret void
}

; Function Attrs: mustprogress uwtable
define hidden void @_ZN11cmd_context5dt_ehC2ERS_(ptr noundef nonnull align 8 dereferenceable(304) %this, ptr noundef nonnull align 8 dereferenceable(872) %owner) unnamed_addr #4 align 2 personality ptr @__gxx_personality_v0 {
entry:
  %this.addr = alloca ptr, align 8
  %owner.addr = alloca ptr, align 8
  %exn.slot = alloca ptr, align 8
  %ehselector.slot = alloca i32, align 4
  store ptr %this, ptr %this.addr, align 8
  store ptr %owner, ptr %owner.addr, align 8
  %this1 = load ptr, ptr %this.addr, align 8
  call void @_ZN15new_datatype_ehC2Ev(ptr noundef nonnull align 8 dereferenceable(8) %this1) #3
  store ptr getelementptr inbounds ({ [5 x ptr] }, ptr @_ZTVN11cmd_context5dt_ehE, i32 0, i32 0, i32 2), ptr %this1, align 8
  %m_owner = getelementptr inbounds %"class.cmd_context::dt_eh", ptr %this1, i32 0, i32 1
  %0 = load ptr, ptr %owner.addr, align 8
  store ptr %0, ptr %m_owner, align 8
  %m_dt_util = getelementptr inbounds %"class.cmd_context::dt_eh", ptr %this1, i32 0, i32 2
  %1 = load ptr, ptr %owner.addr, align 8
  %call = invoke noundef nonnull align 8 dereferenceable(976) ptr @_ZNK11cmd_context1mEv(ptr noundef nonnull align 8 dereferenceable(872) %1)
          to label %invoke.cont unwind label %lpad

invoke.cont:                                      ; preds = %entry
  invoke void @_ZN8datatype4utilC1ER11ast_manager(ptr noundef nonnull align 8 dereferenceable(288) %m_dt_util, ptr noundef nonnull align 8 dereferenceable(976) %call)
          to label %invoke.cont2 unwind label %lpad

invoke.cont2:                                     ; preds = %invoke.cont
  ret void

lpad:                                             ; preds = %invoke.cont, %entry
  %2 = landingpad { ptr, i32 }
          cleanup
  %3 = extractvalue { ptr, i32 } %2, 0
  store ptr %3, ptr %exn.slot, align 8
  %4 = extractvalue { ptr, i32 } %2, 1
  store i32 %4, ptr %ehselector.slot, align 4
  call void @_ZN15new_datatype_ehD2Ev(ptr noundef nonnull align 8 dereferenceable(8) %this1) #3
  br label %eh.resume

eh.resume:                                        ; preds = %lpad
  %exn = load ptr, ptr %exn.slot, align 8
  %sel = load i32, ptr %ehselector.slot, align 4
  %lpad.val = insertvalue { ptr, i32 } poison, ptr %exn, 0
  %lpad.val3 = insertvalue { ptr, i32 } %lpad.val, i32 %sel, 1
  resume { ptr, i32 } %lpad.val3
}