; Function Attrs: mustprogress uwtable
define hidden void @_ZN11cmd_context5dt_ehC2ERS_(ptr noundef nonnull align 8 dereferenceable(304) %this, ptr noundef nonnull align 8 dereferenceable(872) %owner) unnamed_addr #4 align 2 personality ptr @__gxx_personality_v0 {
entry:
  store ptr getelementptr inbounds ({ [5 x ptr] }, ptr @_ZTVN11cmd_context5dt_ehE, i64 0, i32 0, i64 2), ptr %this, align 8
  %m_owner = getelementptr inbounds i8, ptr %this, i64 8
  store ptr %owner, ptr %m_owner, align 8
  tail call void @_ZN11cmd_context12init_managerEv(ptr noundef nonnull align 8 dereferenceable(872) %owner)
  %m_manager.i = getelementptr inbounds i8, ptr %owner, i64 296
  %0 = load ptr, ptr %m_manager.i, align 8
  %m_dt_util = getelementptr inbounds i8, ptr %this, i64 16
  tail call void @_ZN8datatype4utilC1ER11ast_manager(ptr noundef nonnull align 8 dereferenceable(288) %m_dt_util, ptr noundef nonnull align 8 dereferenceable(976) %0)
  ret void
}